target datalayout = "e-m:e-p270:32:32-p271:32:32-p272:64:64-i64:64-i128:128-f80:128-n8:16:32:64-S128"
target triple = "x86_64-pc-linux-gnu"

%struct._packet_info = type { ptr, ptr, i32, i32, %struct.nstime_t, %struct.nstime_t, %struct.nstime_t, i8, ptr, ptr, ptr, ptr, %struct._address, %struct._address, %struct._address, %struct._address, %struct._address, %struct._address, i32, ptr, i8, [3 x i8], %struct.anon, i32, i32, i32, i32, ptr, i8, ptr, ptr, i16, i16, i32, i32, i16, i32, i32, ptr, ptr, ptr, i8, i8, i16, i16, i16, i32, i16, i16, ptr, ptr, ptr, ptr, ptr, i32, i32 }
%struct.nstime_t = type { i64, i32 }
%struct._address = type { i32, i32, ptr, ptr }
%struct.anon = type { i8, [3 x i8] }

@hf_ieee802154_nonask_phy_preamble = internal global i32 0, align 4
@hf_ieee802154_nonask_phy_sfd = internal global i32 0, align 4
@hf_ieee802154_nonask_phr = internal global i32 0, align 4
@ett_ieee802154_nonask_phy = internal global i32 0, align 4
@ett_ieee802154_nonask_phy_phr = internal global i32 0, align 4
@.str.729 = private unnamed_addr constant [26 x i8] c"IEEE 802.15.4 non-ASK PHY\00", align 1
@proto_ieee802154_nonask_phy = internal global i32 0, align 4
@dissect_ieee802154_nonask_phy.phr_fields = internal constant [2 x ptr] [ptr @hf_ieee802154_nonask_phy_length, ptr null], align 16

; Function Attrs: null_pointer_is_valid sspstrong uwtable
define internal i32 @dissect_ieee802154_nonask_phy(ptr noundef %0, ptr noundef %1, ptr noundef %2, ptr noundef %3) #0 {
  %5 = alloca ptr, align 8
  %6 = alloca ptr, align 8
  %7 = alloca ptr, align 8
  %8 = alloca ptr, align 8
  %9 = alloca ptr, align 8
  %10 = alloca ptr, align 8
  %11 = alloca i32, align 4
  %12 = alloca i8, align 1
  %13 = alloca ptr, align 8
  %14 = alloca i32, align 4
  store ptr %0, ptr %5, align 8
  store ptr %1, ptr %6, align 8
  store ptr %2, ptr %7, align 8
  store ptr %3, ptr %8, align 8
  call void @llvm.lifetime.start.p0(i64 8, ptr %9) #17
  store ptr null, ptr %9, align 8
  call void @llvm.lifetime.start.p0(i64 8, ptr %10) #17
  store ptr null, ptr %10, align 8
  call void @llvm.lifetime.start.p0(i64 4, ptr %11) #17
  store i32 0, ptr %11, align 4
  call void @llvm.lifetime.start.p0(i64 1, ptr %12) #17
  call void @llvm.lifetime.start.p0(i64 8, ptr %13) #17
  %15 = load ptr, ptr %7, align 8
  %16 = icmp ne ptr %15, null
  br i1 %16, label %17, label %27

17:                                               ; preds = %4
  %18 = load ptr, ptr %7, align 8
  %19 = load i32, ptr @proto_ieee802154_nonask_phy, align 4
  %20 = load ptr, ptr %5, align 8
  %21 = load ptr, ptr %5, align 8
  %22 = call i32 @tvb_captured_length(ptr noundef %21)
  %23 = call ptr (ptr, i32, ptr, i32, i32, ptr, ...) @proto_tree_add_protocol_format(ptr noundef %18, i32 noundef %19, ptr noundef %20, i32 noundef 0, i32 noundef %22, ptr noundef @.str.729)
  store ptr %23, ptr %10, align 8
  %24 = load ptr, ptr %10, align 8
  %25 = load i32, ptr @ett_ieee802154_nonask_phy, align 4
  %26 = call ptr @proto_item_add_subtree(ptr noundef %24, i32 noundef %25)
  store ptr %26, ptr %9, align 8
  br label %27

27:                                               ; preds = %17, %4
  %28 = load ptr, ptr %6, align 8
  %29 = getelementptr inbounds nuw %struct._packet_info, ptr %28, i32 0, i32 1
  %30 = load ptr, ptr %29, align 8
  call void @col_set_str(ptr noundef %30, i32 noundef 35, ptr noundef @.str.729)
  %31 = load ptr, ptr %5, align 8
  %32 = load i32, ptr %11, align 4
  %33 = add i32 %32, 4
  %34 = add i32 %33, 1
  %35 = call zeroext i8 @tvb_get_uint8(ptr noundef %31, i32 noundef %34)
  store i8 %35, ptr %12, align 1
  %36 = load ptr, ptr %7, align 8
  %37 = icmp ne ptr %36, null
  br i1 %37, label %38, label %60

38:                                               ; preds = %27
  call void @llvm.lifetime.start.p0(i64 4, ptr %14) #17
  %39 = load i32, ptr %11, align 4
  store i32 %39, ptr %14, align 4
  %40 = load ptr, ptr %9, align 8
  %41 = load i32, ptr @hf_ieee802154_nonask_phy_preamble, align 4
  %42 = load ptr, ptr %5, align 8
  %43 = load i32, ptr %14, align 4
  %44 = call ptr @proto_tree_add_item(ptr noundef %40, i32 noundef %41, ptr noundef %42, i32 noundef %43, i32 noundef 4, i32 noundef -2147483648)
  %45 = load i32, ptr %14, align 4
  %46 = add i32 %45, 4
  store i32 %46, ptr %14, align 4
  %47 = load ptr, ptr %9, align 8
  %48 = load i32, ptr @hf_ieee802154_nonask_phy_sfd, align 4
  %49 = load ptr, ptr %5, align 8
  %50 = load i32, ptr %14, align 4
  %51 = call ptr @proto_tree_add_item(ptr noundef %47, i32 noundef %48, ptr noundef %49, i32 noundef %50, i32 noundef 1, i32 noundef -2147483648)
  %52 = load i32, ptr %14, align 4
  %53 = add i32 %52, 1
  store i32 %53, ptr %14, align 4
  %54 = load ptr, ptr %9, align 8
  %55 = load ptr, ptr %5, align 8
  %56 = load i32, ptr %14, align 4
  %57 = load i32, ptr @hf_ieee802154_nonask_phr, align 4
  %58 = load i32, ptr @ett_ieee802154_nonask_phy_phr, align 4
  %59 = call ptr @proto_tree_add_bitmask(ptr noundef %54, ptr noundef %55, i32 noundef %56, i32 noundef %57, i32 noundef %58, ptr noundef @dissect_ieee802154_nonask_phy.phr_fields, i32 noundef 0)
  call void @llvm.lifetime.end.p0(i64 4, ptr %14) #17
  br label %60

60:                                               ; preds = %38, %27
  %61 = load i32, ptr %11, align 4
  %62 = add i32 %61, 6
  store i32 %62, ptr %11, align 4
  %63 = load ptr, ptr %5, align 8
  %64 = load i32, ptr %11, align 4
  %65 = load i8, ptr %12, align 1
  %66 = zext i8 %65 to i32
  %67 = and i32 %66, 127
  %68 = call ptr @tvb_new_subset_length_caplen(ptr noundef %63, i32 noundef %64, i32 noundef -1, i32 noundef %67)
  store ptr %68, ptr %13, align 8
  %69 = load ptr, ptr %13, align 8
  %70 = load ptr, ptr %6, align 8
  %71 = load ptr, ptr %9, align 8
  call void @dissect_ieee802154_common(ptr noundef %69, ptr noundef %70, ptr noundef %71, i32 noundef 2, i32 noundef 0)
  %72 = load ptr, ptr %5, align 8
  %73 = call i32 @tvb_captured_length(ptr noundef %72)
  call void @llvm.lifetime.end.p0(i64 8, ptr %13) #17
  call void @llvm.lifetime.end.p0(i64 1, ptr %12) #17
  call void @llvm.lifetime.end.p0(i64 4, ptr %11) #17
  call void @llvm.lifetime.end.p0(i64 8, ptr %10) #17
  call void @llvm.lifetime.end.p0(i64 8, ptr %9) #17
  ret i32 %73
}