; Function Attrs: null_pointer_is_valid sspstrong uwtable
define internal i32 @dissect_ieee802154_nonask_phy(ptr noundef %0, ptr noundef %1, ptr noundef %2, ptr readnone captures(none) %3) #0 {
  %.not = icmp eq ptr %2, null
  br i1 %.not, label %11, label %5

5:                                                ; preds = %4
  %6 = load i32, ptr @proto_ieee802154_nonask_phy, align 4
  %7 = tail call i32 @tvb_captured_length(ptr noundef %0)
  %8 = tail call ptr (ptr, i32, ptr, i32, i32, ptr, ...) @proto_tree_add_protocol_format(ptr noundef nonnull %2, i32 noundef %6, ptr noundef %0, i32 noundef 0, i32 noundef %7, ptr noundef nonnull @.str.729)
  %9 = load i32, ptr @ett_ieee802154_nonask_phy, align 4
  %10 = tail call ptr @proto_item_add_subtree(ptr noundef %8, i32 noundef %9)
  br label %11

11:                                               ; preds = %5, %4
  %.0 = phi ptr [ %10, %5 ], [ null, %4 ]
  %12 = getelementptr inbounds nuw i8, ptr %1, i64 8
  %13 = load ptr, ptr %12, align 8
  tail call void @col_set_str(ptr noundef %13, i32 noundef 35, ptr noundef nonnull @.str.729)
  %14 = tail call zeroext i8 @tvb_get_uint8(ptr noundef %0, i32 noundef 5)
  br i1 %.not, label %23, label %15

15:                                               ; preds = %11
  %16 = load i32, ptr @hf_ieee802154_nonask_phy_preamble, align 4
  %17 = tail call ptr @proto_tree_add_item(ptr noundef %.0, i32 noundef %16, ptr noundef %0, i32 noundef 0, i32 noundef 4, i32 noundef -2147483648)
  %18 = load i32, ptr @hf_ieee802154_nonask_phy_sfd, align 4
  %19 = tail call ptr @proto_tree_add_item(ptr noundef %.0, i32 noundef %18, ptr noundef %0, i32 noundef 4, i32 noundef 1, i32 noundef -2147483648)
  %20 = load i32, ptr @hf_ieee802154_nonask_phr, align 4
  %21 = load i32, ptr @ett_ieee802154_nonask_phy_phr, align 4
  %22 = tail call ptr @proto_tree_add_bitmask(ptr noundef %.0, ptr noundef %0, i32 noundef 5, i32 noundef %20, i32 noundef %21, ptr noundef nonnull @dissect_ieee802154_nonask_phy.phr_fields, i32 noundef 0)
  br label %23

23:                                               ; preds = %15, %11
  %24 = and i8 %14, 127
  %25 = zext nneg i8 %24 to i32
  %26 = tail call ptr @tvb_new_subset_length_caplen(ptr noundef %0, i32 noundef 6, i32 noundef -1, i32 noundef %25)
  tail call fastcc void @dissect_ieee802154_common(ptr noundef %26, ptr noundef %1, ptr noundef %.0, i32 noundef 2, i32 noundef 0)
  %27 = tail call i32 @tvb_captured_length(ptr noundef %0)
  ret i32 %27
}